target datalayout = "e-m:e-p270:32:32-p271:32:32-p272:64:64-i64:64-i128:128-f80:128-n8:16:32:64-S128"
target triple = "x86_64-pc-linux-gnu"

%struct.ObjectAddress = type { i32, i32, i32 }
%struct.nameData = type { [64 x i8] }
%struct.RelationData = type { %struct.RelFileLocator, ptr, i32, i32, i8, i8, i8, i8, i8, i32, i32, i32, i32, ptr, ptr, i32, %struct.LockInfoData, ptr, ptr, ptr, ptr, ptr, i8, ptr, ptr, ptr, ptr, ptr, ptr, i32, ptr, i8, ptr, ptr, i32, i8, i32, ptr, i8, ptr, ptr, ptr, ptr, ptr, ptr, ptr, i32, ptr, ptr, ptr, ptr, ptr, ptr, ptr, ptr, ptr, ptr, ptr, ptr, ptr, ptr, ptr, ptr, ptr, ptr, ptr, i32, i8, ptr }
%struct.RelFileLocator = type { i32, i32, i32 }
%struct.LockInfoData = type { %struct.LockRelId }
%struct.LockRelId = type { i32, i32 }

@binary_upgrade_next_pg_type_oid = dso_local global i32 0, align 4
@IsBinaryUpgrade = external global i8, align 1
@.str = private unnamed_addr constant [54 x i8] c"pg_type OID value not set when in binary upgrade mode\00", align 1
@.str.1 = private unnamed_addr constant [10 x i8] c"pg_type.c\00", align 1
@__func__.TypeShellMake = private unnamed_addr constant [14 x i8] c"TypeShellMake\00", align 1
@Mode = external global i32, align 4
@object_access_hook = external global ptr, align 8

; Function Attrs: inlinehint nounwind uwtable
define internal i64 @PointerGetDatum(ptr noundef %0) #3 {
  %2 = alloca ptr, align 8
  store ptr %0, ptr %2, align 8
  %3 = load ptr, ptr %2, align 8
  %4 = ptrtoint ptr %3 to i64
  ret i64 %4
}

; Function Attrs: inlinehint nounwind uwtable
define internal i64 @CStringGetDatum(ptr noundef %0) #3 {
  %2 = alloca ptr, align 8
  store ptr %0, ptr %2, align 8
  %3 = load ptr, ptr %2, align 8
  %4 = call i64 @PointerGetDatum(ptr noundef %3)
  ret i64 %4
}

; Function Attrs: inlinehint nounwind uwtable
define internal i64 @Int32GetDatum(i32 noundef %0) #3 {
  %2 = alloca i32, align 4
  store i32 %0, ptr %2, align 4
  %3 = load i32, ptr %2, align 4
  %4 = sext i32 %3 to i64
  ret i64 %4
}

; Function Attrs: inlinehint nounwind uwtable
define internal i64 @CharGetDatum(i8 noundef signext %0) #3 {
  %2 = alloca i8, align 1
  store i8 %0, ptr %2, align 1
  %3 = load i8, ptr %2, align 1
  %4 = sext i8 %3 to i64
  ret i64 %4
}

; Function Attrs: inlinehint nounwind uwtable
define internal i64 @BoolGetDatum(i1 noundef zeroext %0) #3 {
  %2 = alloca i8, align 1
  %3 = zext i1 %0 to i8
  store i8 %3, ptr %2, align 1
  %4 = load i8, ptr %2, align 1, !range !6, !noundef !7
  %5 = trunc i8 %4 to i1
  %6 = select i1 %5, i32 1, i32 0
  %7 = sext i32 %6 to i64
  ret i64 %7
}

; Function Attrs: inlinehint nounwind uwtable
define internal i64 @Int16GetDatum(i16 noundef signext %0) #3 {
  %2 = alloca i16, align 2
  store i16 %0, ptr %2, align 2
  %3 = load i16, ptr %2, align 2
  %4 = sext i16 %3 to i64
  ret i64 %4
}

; Function Attrs: inlinehint nounwind uwtable
define internal i64 @ObjectIdGetDatum(i32 noundef %0) #3 {
  %2 = alloca i32, align 4
  store i32 %0, ptr %2, align 4
  %3 = load i32, ptr %2, align 4
  %4 = zext i32 %3 to i64
  ret i64 %4
}

; Function Attrs: inlinehint nounwind uwtable
define internal i64 @NameGetDatum(ptr noundef %0) #3 {
  %2 = alloca ptr, align 8
  store ptr %0, ptr %2, align 8
  %3 = load ptr, ptr %2, align 8
  %4 = getelementptr inbounds nuw %struct.nameData, ptr %3, i32 0, i32 0
  %5 = getelementptr inbounds [64 x i8], ptr %4, i64 0, i64 0
  %6 = call i64 @CStringGetDatum(ptr noundef %5)
  ret i64 %6
}

; Function Attrs: nounwind uwtable
define dso_local { i64, i32 } @TypeShellMake(ptr noundef %0, i32 noundef %1, i32 noundef %2) #0 {
  %4 = alloca %struct.ObjectAddress, align 4
  %5 = alloca ptr, align 8
  %6 = alloca i32, align 4
  %7 = alloca i32, align 4
  %8 = alloca ptr, align 8
  %9 = alloca ptr, align 8
  %10 = alloca i32, align 4
  %11 = alloca ptr, align 8
  %12 = alloca [32 x i64], align 16
  %13 = alloca [32 x i8], align 16
  %14 = alloca i32, align 4
  %15 = alloca %struct.nameData, align 1
  %16 = alloca { i64, i32 }, align 8
  store ptr %0, ptr %5, align 8
  store i32 %1, ptr %6, align 4
  store i32 %2, ptr %7, align 4
  call void @llvm.lifetime.start.p0(i64 8, ptr %8) #7
  call void @llvm.lifetime.start.p0(i64 8, ptr %9) #7
  call void @llvm.lifetime.start.p0(i64 4, ptr %10) #7
  call void @llvm.lifetime.start.p0(i64 8, ptr %11) #7
  call void @llvm.lifetime.start.p0(i64 256, ptr %12) #7
  call void @llvm.lifetime.start.p0(i64 32, ptr %13) #7
  call void @llvm.lifetime.start.p0(i64 4, ptr %14) #7
  call void @llvm.lifetime.start.p0(i64 64, ptr %15) #7
  %17 = call ptr @table_open(i32 noundef 1247, i32 noundef 3)
  store ptr %17, ptr %8, align 8
  %18 = load ptr, ptr %8, align 8
  %19 = getelementptr inbounds nuw %struct.RelationData, ptr %18, i32 0, i32 14
  %20 = load ptr, ptr %19, align 8
  store ptr %20, ptr %9, align 8
  store i32 0, ptr %10, align 4
  br label %21

21:                                               ; preds = %31, %3
  %22 = load i32, ptr %10, align 4
  %23 = icmp slt i32 %22, 32
  br i1 %23, label %24, label %34

24:                                               ; preds = %21
  %25 = load i32, ptr %10, align 4
  %26 = sext i32 %25 to i64
  %27 = getelementptr inbounds [32 x i8], ptr %13, i64 0, i64 %26
  store i8 0, ptr %27, align 1
  %28 = load i32, ptr %10, align 4
  %29 = sext i32 %28 to i64
  %30 = getelementptr inbounds [32 x i64], ptr %12, i64 0, i64 %29
  store i64 0, ptr %30, align 8
  br label %31

31:                                               ; preds = %24
  %32 = load i32, ptr %10, align 4
  %33 = add i32 %32, 1
  store i32 %33, ptr %10, align 4
  br label %21, !llvm.loop !4

34:                                               ; preds = %21
  %35 = load ptr, ptr %5, align 8
  call void @namestrcpy(ptr noundef %15, ptr noundef %35)
  %36 = call i64 @NameGetDatum(ptr noundef %15)
  %37 = getelementptr inbounds [32 x i64], ptr %12, i64 0, i64 1
  store i64 %36, ptr %37, align 8
  %38 = load i32, ptr %6, align 4
  %39 = call i64 @ObjectIdGetDatum(i32 noundef %38)
  %40 = getelementptr inbounds [32 x i64], ptr %12, i64 0, i64 2
  store i64 %39, ptr %40, align 16
  %41 = load i32, ptr %7, align 4
  %42 = call i64 @ObjectIdGetDatum(i32 noundef %41)
  %43 = getelementptr inbounds [32 x i64], ptr %12, i64 0, i64 3
  store i64 %42, ptr %43, align 8
  %44 = call i64 @Int16GetDatum(i16 noundef signext 4)
  %45 = getelementptr inbounds [32 x i64], ptr %12, i64 0, i64 4
  store i64 %44, ptr %45, align 16
  %46 = call i64 @BoolGetDatum(i1 noundef zeroext true)
  %47 = getelementptr inbounds [32 x i64], ptr %12, i64 0, i64 5
  store i64 %46, ptr %47, align 8
  %48 = call i64 @CharGetDatum(i8 noundef signext 112)
  %49 = getelementptr inbounds [32 x i64], ptr %12, i64 0, i64 6
  store i64 %48, ptr %49, align 16
  %50 = call i64 @CharGetDatum(i8 noundef signext 80)
  %51 = getelementptr inbounds [32 x i64], ptr %12, i64 0, i64 7
  store i64 %50, ptr %51, align 8
  %52 = call i64 @BoolGetDatum(i1 noundef zeroext false)
  %53 = getelementptr inbounds [32 x i64], ptr %12, i64 0, i64 8
  store i64 %52, ptr %53, align 16
  %54 = call i64 @BoolGetDatum(i1 noundef zeroext false)
  %55 = getelementptr inbounds [32 x i64], ptr %12, i64 0, i64 9
  store i64 %54, ptr %55, align 8
  %56 = call i64 @CharGetDatum(i8 noundef signext 44)
  %57 = getelementptr inbounds [32 x i64], ptr %12, i64 0, i64 10
  store i64 %56, ptr %57, align 16
  %58 = call i64 @ObjectIdGetDatum(i32 noundef 0)
  %59 = getelementptr inbounds [32 x i64], ptr %12, i64 0, i64 11
  store i64 %58, ptr %59, align 8
  %60 = call i64 @ObjectIdGetDatum(i32 noundef 0)
  %61 = getelementptr inbounds [32 x i64], ptr %12, i64 0, i64 12
  store i64 %60, ptr %61, align 16
  %62 = call i64 @ObjectIdGetDatum(i32 noundef 0)
  %63 = getelementptr inbounds [32 x i64], ptr %12, i64 0, i64 13
  store i64 %62, ptr %63, align 8
  %64 = call i64 @ObjectIdGetDatum(i32 noundef 0)
  %65 = getelementptr inbounds [32 x i64], ptr %12, i64 0, i64 14
  store i64 %64, ptr %65, align 16
  %66 = call i64 @ObjectIdGetDatum(i32 noundef 2398)
  %67 = getelementptr inbounds [32 x i64], ptr %12, i64 0, i64 15
  store i64 %66, ptr %67, align 8
  %68 = call i64 @ObjectIdGetDatum(i32 noundef 2399)
  %69 = getelementptr inbounds [32 x i64], ptr %12, i64 0, i64 16
  store i64 %68, ptr %69, align 16
  %70 = call i64 @ObjectIdGetDatum(i32 noundef 0)
  %71 = getelementptr inbounds [32 x i64], ptr %12, i64 0, i64 17
  store i64 %70, ptr %71, align 8
  %72 = call i64 @ObjectIdGetDatum(i32 noundef 0)
  %73 = getelementptr inbounds [32 x i64], ptr %12, i64 0, i64 18
  store i64 %72, ptr %73, align 16
  %74 = call i64 @ObjectIdGetDatum(i32 noundef 0)
  %75 = getelementptr inbounds [32 x i64], ptr %12, i64 0, i64 19
  store i64 %74, ptr %75, align 8
  %76 = call i64 @ObjectIdGetDatum(i32 noundef 0)
  %77 = getelementptr inbounds [32 x i64], ptr %12, i64 0, i64 20
  store i64 %76, ptr %77, align 16
  %78 = call i64 @ObjectIdGetDatum(i32 noundef 0)
  %79 = getelementptr inbounds [32 x i64], ptr %12, i64 0, i64 21
  store i64 %78, ptr %79, align 8
  %80 = call i64 @CharGetDatum(i8 noundef signext 105)
  %81 = getelementptr inbounds [32 x i64], ptr %12, i64 0, i64 22
  store i64 %80, ptr %81, align 16
  %82 = call i64 @CharGetDatum(i8 noundef signext 112)
  %83 = getelementptr inbounds [32 x i64], ptr %12, i64 0, i64 23
  store i64 %82, ptr %83, align 8
  %84 = call i64 @BoolGetDatum(i1 noundef zeroext false)
  %85 = getelementptr inbounds [32 x i64], ptr %12, i64 0, i64 24
  store i64 %84, ptr %85, align 16
  %86 = call i64 @ObjectIdGetDatum(i32 noundef 0)
  %87 = getelementptr inbounds [32 x i64], ptr %12, i64 0, i64 25
  store i64 %86, ptr %87, align 8
  %88 = call i64 @Int32GetDatum(i32 noundef -1)
  %89 = getelementptr inbounds [32 x i64], ptr %12, i64 0, i64 26
  store i64 %88, ptr %89, align 16
  %90 = call i64 @Int32GetDatum(i32 noundef 0)
  %91 = getelementptr inbounds [32 x i64], ptr %12, i64 0, i64 27
  store i64 %90, ptr %91, align 8
  %92 = call i64 @ObjectIdGetDatum(i32 noundef 0)
  %93 = getelementptr inbounds [32 x i64], ptr %12, i64 0, i64 28
  store i64 %92, ptr %93, align 16
  %94 = getelementptr inbounds [32 x i8], ptr %13, i64 0, i64 29
  store i8 1, ptr %94, align 1
  %95 = getelementptr inbounds [32 x i8], ptr %13, i64 0, i64 30
  store i8 1, ptr %95, align 2
  %96 = getelementptr inbounds [32 x i8], ptr %13, i64 0, i64 31
  store i8 1, ptr %96, align 1
  %97 = load i8, ptr @IsBinaryUpgrade, align 1, !range !6, !noundef !7
  %98 = trunc i8 %97 to i1
  br i1 %98, label %99, label %116

99:                                               ; preds = %34
  %100 = load i32, ptr @binary_upgrade_next_pg_type_oid, align 4
  %101 = icmp ne i32 %100, 0
  br i1 %101, label %114, label %102

102:                                              ; preds = %99
  br label %103

103:                                              ; preds = %102
  br i1 true, label %104, label %106

104:                                              ; preds = %103
  %105 = call zeroext i1 @errstart_cold(i32 noundef 21, ptr noundef null) #8
  br i1 %105, label %108, label %111

106:                                              ; preds = %103
  %107 = call zeroext i1 @errstart(i32 noundef 21, ptr noundef null)
  br i1 %107, label %108, label %111

108:                                              ; preds = %106, %104
  %109 = call i32 @errcode(i32 noundef 50856066)
  %110 = call i32 (ptr, ...) @errmsg(ptr noundef @.str)
  call void @errfinish(ptr noundef @.str.1, i32 noundef 133, ptr noundef @__func__.TypeShellMake)
  br label %111

111:                                              ; preds = %108, %106, %104
  unreachable

112:                                              ; No predecessors!
  br label %113

113:                                              ; preds = %112
  br label %114

114:                                              ; preds = %113, %99
  %115 = load i32, ptr @binary_upgrade_next_pg_type_oid, align 4
  store i32 %115, ptr %14, align 4
  store i32 0, ptr @binary_upgrade_next_pg_type_oid, align 4
  br label %119

116:                                              ; preds = %34
  %117 = load ptr, ptr %8, align 8
  %118 = call i32 @GetNewOidWithIndex(ptr noundef %117, i32 noundef 2703, i16 noundef signext 1)
  store i32 %118, ptr %14, align 4
  br label %119

119:                                              ; preds = %116, %114
  %120 = load i32, ptr %14, align 4
  %121 = call i64 @ObjectIdGetDatum(i32 noundef %120)
  %122 = getelementptr inbounds [32 x i64], ptr %12, i64 0, i64 0
  store i64 %121, ptr %122, align 16
  %123 = load ptr, ptr %9, align 8
  %124 = getelementptr inbounds [32 x i64], ptr %12, i64 0, i64 0
  %125 = getelementptr inbounds [32 x i8], ptr %13, i64 0, i64 0
  %126 = call ptr @heap_form_tuple(ptr noundef %123, ptr noundef %124, ptr noundef %125)
  store ptr %126, ptr %11, align 8
  %127 = load ptr, ptr %8, align 8
  %128 = load ptr, ptr %11, align 8
  call void @CatalogTupleInsert(ptr noundef %127, ptr noundef %128)
  %129 = load i32, ptr @Mode, align 4
  %130 = icmp eq i32 %129, 0
  br i1 %130, label %134, label %131

131:                                              ; preds = %119
  %132 = load ptr, ptr %11, align 8
  %133 = load ptr, ptr %8, align 8
  call void @GenerateTypeDependencies(ptr noundef %132, ptr noundef %133, ptr noundef null, ptr noundef null, i8 noundef signext 0, i1 noundef zeroext false, i1 noundef zeroext false, i1 noundef zeroext true, i1 noundef zeroext false)
  br label %134

134:                                              ; preds = %131, %119
  br label %135

135:                                              ; preds = %134
  %136 = load ptr, ptr @object_access_hook, align 8
  %137 = icmp ne ptr %136, null
  br i1 %137, label %138, label %140

138:                                              ; preds = %135
  %139 = load i32, ptr %14, align 4
  call void @RunObjectPostCreateHook(i32 noundef 1247, i32 noundef %139, i32 noundef 0, i1 noundef zeroext false)
  br label %140

140:                                              ; preds = %138, %135
  br label %141

141:                                              ; preds = %140
  br label %142

142:                                              ; preds = %141
  br label %143

143:                                              ; preds = %142
  %144 = getelementptr inbounds nuw %struct.ObjectAddress, ptr %4, i32 0, i32 0
  store i32 1247, ptr %144, align 4
  %145 = load i32, ptr %14, align 4
  %146 = getelementptr inbounds nuw %struct.ObjectAddress, ptr %4, i32 0, i32 1
  store i32 %145, ptr %146, align 4
  %147 = getelementptr inbounds nuw %struct.ObjectAddress, ptr %4, i32 0, i32 2
  store i32 0, ptr %147, align 4
  br label %148

148:                                              ; preds = %143
  br label %149

149:                                              ; preds = %148
  %150 = load ptr, ptr %11, align 8
  call void @heap_freetuple(ptr noundef %150)
  %151 = load ptr, ptr %8, align 8
  call void @table_close(ptr noundef %151, i32 noundef 3)
  call void @llvm.lifetime.end.p0(i64 64, ptr %15) #7
  call void @llvm.lifetime.end.p0(i64 4, ptr %14) #7
  call void @llvm.lifetime.end.p0(i64 32, ptr %13) #7
  call void @llvm.lifetime.end.p0(i64 256, ptr %12) #7
  call void @llvm.lifetime.end.p0(i64 8, ptr %11) #7
  call void @llvm.lifetime.end.p0(i64 4, ptr %10) #7
  call void @llvm.lifetime.end.p0(i64 8, ptr %9) #7
  call void @llvm.lifetime.end.p0(i64 8, ptr %8) #7
  call void @llvm.memcpy.p0.p0.i64(ptr align 8 %16, ptr align 4 %4, i64 12, i1 false)
  %152 = load { i64, i32 }, ptr %16, align 8
  ret { i64, i32 } %152
}