; Function Attrs: nounwind uwtable
define dso_local { i64, i32 } @TypeShellMake(ptr noundef %0, i32 noundef %1, i32 noundef %2) local_unnamed_addr #0 {
  %4 = alloca [32 x i64], align 16
  %5 = alloca [32 x i8], align 16
  %6 = alloca %struct.nameData, align 1
  call void @llvm.lifetime.start.p0(i64 256, ptr nonnull %4) #8
  call void @llvm.lifetime.start.p0(i64 32, ptr nonnull %5) #8
  call void @llvm.lifetime.start.p0(i64 64, ptr nonnull %6) #8
  %7 = tail call ptr @table_open(i32 noundef 1247, i32 noundef 3) #8
  %8 = getelementptr inbounds nuw i8, ptr %7, i64 64
  %9 = load ptr, ptr %8, align 8
  call void @llvm.memset.p0.i64(ptr noundef nonnull align 16 dereferenceable(32) %5, i8 0, i64 32, i1 false)
  call void @llvm.memset.p0.i64(ptr noundef nonnull align 16 dereferenceable(256) %4, i8 0, i64 256, i1 false)
  call void @namestrcpy(ptr noundef nonnull %6, ptr noundef %0) #8
  %10 = ptrtoint ptr %6 to i64
  %11 = getelementptr inbounds nuw i8, ptr %4, i64 8
  store i64 %10, ptr %11, align 8
  %12 = zext i32 %1 to i64
  %13 = getelementptr inbounds nuw i8, ptr %4, i64 16
  store i64 %12, ptr %13, align 16
  %14 = zext i32 %2 to i64
  %15 = getelementptr inbounds nuw i8, ptr %4, i64 24
  store i64 %14, ptr %15, align 8
  %16 = getelementptr inbounds nuw i8, ptr %4, i64 32
  store i64 4, ptr %16, align 16
  %17 = getelementptr inbounds nuw i8, ptr %4, i64 40
  store i64 1, ptr %17, align 8
  %18 = getelementptr inbounds nuw i8, ptr %4, i64 48
  store i64 112, ptr %18, align 16
  %19 = getelementptr inbounds nuw i8, ptr %4, i64 56
  store i64 80, ptr %19, align 8
  %20 = getelementptr inbounds nuw i8, ptr %4, i64 64
  %21 = getelementptr inbounds nuw i8, ptr %4, i64 80
  call void @llvm.memset.p0.i64(ptr noundef nonnull align 16 dereferenceable(16) %20, i8 0, i64 16, i1 false)
  store i64 44, ptr %21, align 16
  %22 = getelementptr inbounds nuw i8, ptr %4, i64 88
  %23 = getelementptr inbounds nuw i8, ptr %4, i64 120
  call void @llvm.memset.p0.i64(ptr noundef nonnull align 8 dereferenceable(32) %22, i8 0, i64 32, i1 false)
  store i64 2398, ptr %23, align 8
  %24 = getelementptr inbounds nuw i8, ptr %4, i64 128
  store i64 2399, ptr %24, align 16
  %25 = getelementptr inbounds nuw i8, ptr %4, i64 136
  %26 = getelementptr inbounds nuw i8, ptr %4, i64 176
  call void @llvm.memset.p0.i64(ptr noundef nonnull align 8 dereferenceable(40) %25, i8 0, i64 40, i1 false)
  store i64 105, ptr %26, align 16
  %27 = getelementptr inbounds nuw i8, ptr %4, i64 184
  store i64 112, ptr %27, align 8
  %28 = getelementptr inbounds nuw i8, ptr %4, i64 192
  %29 = getelementptr inbounds nuw i8, ptr %4, i64 208
  call void @llvm.memset.p0.i64(ptr noundef nonnull align 16 dereferenceable(16) %28, i8 0, i64 16, i1 false)
  store i64 -1, ptr %29, align 16
  %30 = getelementptr inbounds nuw i8, ptr %4, i64 216
  %31 = getelementptr inbounds nuw i8, ptr %5, i64 29
  call void @llvm.memset.p0.i64(ptr noundef nonnull align 8 dereferenceable(16) %30, i8 0, i64 16, i1 false)
  store i8 1, ptr %31, align 1
  %32 = getelementptr inbounds nuw i8, ptr %5, i64 30
  store i8 1, ptr %32, align 2
  %33 = getelementptr inbounds nuw i8, ptr %5, i64 31
  store i8 1, ptr %33, align 1
  %34 = load i8, ptr @IsBinaryUpgrade, align 1, !range !4, !noundef !5
  %35 = trunc nuw i8 %34 to i1
  br i1 %35, label %36, label %43

36:                                               ; preds = %3
  %37 = load i32, ptr @binary_upgrade_next_pg_type_oid, align 4
  %.not = icmp eq i32 %37, 0
  br i1 %.not, label %38, label %42

38:                                               ; preds = %36
  %39 = call zeroext i1 @errstart_cold(i32 noundef 21, ptr noundef null) #9
  call void @llvm.assume(i1 %39)
  %40 = call i32 @errcode(i32 noundef 50856066) #8
  %41 = call i32 (ptr, ...) @errmsg(ptr noundef nonnull @.str) #8
  call void @errfinish(ptr noundef nonnull @.str.1, i32 noundef 133, ptr noundef nonnull @__func__.TypeShellMake) #8
  unreachable

42:                                               ; preds = %36
  store i32 0, ptr @binary_upgrade_next_pg_type_oid, align 4
  br label %45

43:                                               ; preds = %3
  %44 = call i32 @GetNewOidWithIndex(ptr noundef nonnull %7, i32 noundef 2703, i16 noundef signext 1) #8
  br label %45

45:                                               ; preds = %43, %42
  %.020 = phi i32 [ %37, %42 ], [ %44, %43 ]
  %46 = zext i32 %.020 to i64
  store i64 %46, ptr %4, align 16
  %47 = call ptr @heap_form_tuple(ptr noundef %9, ptr noundef nonnull %4, ptr noundef nonnull %5) #8
  call void @CatalogTupleInsert(ptr noundef nonnull %7, ptr noundef %47) #8
  %48 = load i32, ptr @Mode, align 4
  %49 = icmp eq i32 %48, 0
  br i1 %49, label %51, label %50

50:                                               ; preds = %45
  call void @GenerateTypeDependencies(ptr noundef %47, ptr noundef nonnull %7, ptr noundef null, ptr noundef null, i8 noundef signext 0, i1 noundef zeroext false, i1 noundef zeroext false, i1 noundef zeroext true, i1 noundef zeroext false)
  br label %51

51:                                               ; preds = %45, %50
  %52 = load ptr, ptr @object_access_hook, align 8
  %.not22 = icmp eq ptr %52, null
  br i1 %.not22, label %54, label %53

53:                                               ; preds = %51
  call void @RunObjectPostCreateHook(i32 noundef 1247, i32 noundef %.020, i32 noundef 0, i1 noundef zeroext false) #8
  br label %54

54:                                               ; preds = %51, %53
  call void @heap_freetuple(ptr noundef %47) #8
  call void @table_close(ptr noundef nonnull %7, i32 noundef 3) #8
  call void @llvm.lifetime.end.p0(i64 64, ptr nonnull %6) #8
  call void @llvm.lifetime.end.p0(i64 32, ptr nonnull %5) #8
  call void @llvm.lifetime.end.p0(i64 256, ptr nonnull %4) #8
  %.sroa.219.0.insert.shift = shl nuw i64 %46, 32
  %.sroa.018.0.insert.insert = or disjoint i64 %.sroa.219.0.insert.shift, 1247
  %.fca.0.insert = insertvalue { i64, i32 } poison, i64 %.sroa.018.0.insert.insert, 0
  %.fca.1.insert = insertvalue { i64, i32 } %.fca.0.insert, i32 0, 1
  ret { i64, i32 } %.fca.1.insert
}